target datalayout = "e-m:e-p270:32:32-p271:32:32-p272:64:64-i64:64-i128:128-f80:128-n8:16:32:64-S128"
target triple = "x86_64-pc-linux-gnu"

%struct.lxb_encoding_single_index_t = type { [4 x i8], i32, i32 }
%struct.lxb_encoding_decode_t = type { ptr, ptr, i64, i64, ptr, i64, i32, i32, i8, i8, i32, %union.anon }
%union.anon = type { %struct.lxb_encoding_ctx_2022_jp_t }
%struct.lxb_encoding_ctx_2022_jp_t = type { i8, i8, i32, i32, i8 }
%struct.lxb_encoding_ctx_euc_jp_t = type { i8, i8 }

@lxb_encoding_multi_index_jis0212 = external constant [7211 x %struct.lxb_encoding_single_index_t], align 16
@lxb_encoding_multi_index_jis0208 = external constant [11104 x %struct.lxb_encoding_single_index_t], align 16

; Function Attrs: nounwind uwtable
define hidden i32 @lxb_encoding_decode_euc_jp_single(ptr noundef %0, ptr noundef %1, ptr noundef %2) #0 {
  %4 = alloca i32, align 4
  %5 = alloca ptr, align 8
  %6 = alloca ptr, align 8
  %7 = alloca ptr, align 8
  %8 = alloca i8, align 1
  %9 = alloca i8, align 1
  %10 = alloca i8, align 1
  %11 = alloca i32, align 4
  store ptr %0, ptr %5, align 8, !tbaa !4
  store ptr %1, ptr %6, align 8, !tbaa !8
  store ptr %2, ptr %7, align 8, !tbaa !10
  call void @llvm.lifetime.start.p0(i64 1, ptr %8) #5
  call void @llvm.lifetime.start.p0(i64 1, ptr %9) #5
  call void @llvm.lifetime.start.p0(i64 1, ptr %10) #5
  %12 = load ptr, ptr %5, align 8, !tbaa !4
  %13 = getelementptr inbounds nuw %struct.lxb_encoding_decode_t, ptr %12, i32 0, i32 11
  %14 = getelementptr inbounds nuw %struct.lxb_encoding_ctx_euc_jp_t, ptr %13, i32 0, i32 0
  %15 = load i8, ptr %14, align 8, !tbaa !27
  %16 = zext i8 %15 to i32
  %17 = icmp ne i32 %16, 0
  br i1 %17, label %18, label %40

18:                                               ; preds = %3
  %19 = load ptr, ptr %5, align 8, !tbaa !4
  %20 = getelementptr inbounds nuw %struct.lxb_encoding_decode_t, ptr %19, i32 0, i32 11
  %21 = getelementptr inbounds nuw %struct.lxb_encoding_ctx_euc_jp_t, ptr %20, i32 0, i32 0
  %22 = load i8, ptr %21, align 8, !tbaa !27
  store i8 %22, ptr %10, align 1, !tbaa !27
  %23 = load ptr, ptr %6, align 8, !tbaa !8
  %24 = load ptr, ptr %23, align 8, !tbaa !10
  %25 = getelementptr inbounds nuw i8, ptr %24, i32 1
  store ptr %25, ptr %23, align 8, !tbaa !10
  %26 = load i8, ptr %24, align 1, !tbaa !27
  store i8 %26, ptr %9, align 1, !tbaa !27
  %27 = load ptr, ptr %5, align 8, !tbaa !4
  %28 = getelementptr inbounds nuw %struct.lxb_encoding_decode_t, ptr %27, i32 0, i32 11
  %29 = getelementptr inbounds nuw %struct.lxb_encoding_ctx_euc_jp_t, ptr %28, i32 0, i32 0
  store i8 0, ptr %29, align 8, !tbaa !27
  %30 = load ptr, ptr %5, align 8, !tbaa !4
  %31 = getelementptr inbounds nuw %struct.lxb_encoding_decode_t, ptr %30, i32 0, i32 11
  %32 = getelementptr inbounds nuw %struct.lxb_encoding_ctx_euc_jp_t, ptr %31, i32 0, i32 1
  %33 = load i8, ptr %32, align 1, !tbaa !27, !range !20, !noundef !21
  %34 = trunc i8 %33 to i1
  br i1 %34, label %35, label %39

35:                                               ; preds = %18
  store i8 1, ptr %8, align 1, !tbaa !33
  %36 = load ptr, ptr %5, align 8, !tbaa !4
  %37 = getelementptr inbounds nuw %struct.lxb_encoding_decode_t, ptr %36, i32 0, i32 11
  %38 = getelementptr inbounds nuw %struct.lxb_encoding_ctx_euc_jp_t, ptr %37, i32 0, i32 1
  store i8 0, ptr %38, align 1, !tbaa !27
  br label %122

39:                                               ; preds = %18
  br label %80

40:                                               ; preds = %3
  %41 = load ptr, ptr %6, align 8, !tbaa !8
  %42 = load ptr, ptr %41, align 8, !tbaa !10
  %43 = getelementptr inbounds nuw i8, ptr %42, i32 1
  store ptr %43, ptr %41, align 8, !tbaa !10
  %44 = load i8, ptr %42, align 1, !tbaa !27
  store i8 %44, ptr %10, align 1, !tbaa !27
  %45 = load i8, ptr %10, align 1, !tbaa !27
  %46 = zext i8 %45 to i32
  %47 = icmp slt i32 %46, 128
  br i1 %47, label %48, label %51

48:                                               ; preds = %40
  %49 = load i8, ptr %10, align 1, !tbaa !27
  %50 = zext i8 %49 to i32
  store i32 %50, ptr %4, align 4
  store i32 1, ptr %11, align 4
  br label %199

51:                                               ; preds = %40
  %52 = load i8, ptr %10, align 1, !tbaa !27
  %53 = zext i8 %52 to i32
  %54 = sub nsw i32 %53, 161
  %55 = icmp ugt i32 %54, 93
  br i1 %55, label %56, label %65

56:                                               ; preds = %51
  %57 = load i8, ptr %10, align 1, !tbaa !27
  %58 = zext i8 %57 to i32
  %59 = icmp ne i32 %58, 142
  br i1 %59, label %60, label %65

60:                                               ; preds = %56
  %61 = load i8, ptr %10, align 1, !tbaa !27
  %62 = zext i8 %61 to i32
  %63 = icmp ne i32 %62, 143
  br i1 %63, label %64, label %65

64:                                               ; preds = %60
  store i32 2097151, ptr %4, align 4
  store i32 1, ptr %11, align 4
  br label %199

65:                                               ; preds = %60, %56, %51
  %66 = load ptr, ptr %6, align 8, !tbaa !8
  %67 = load ptr, ptr %66, align 8, !tbaa !10
  %68 = load ptr, ptr %7, align 8, !tbaa !10
  %69 = icmp uge ptr %67, %68
  br i1 %69, label %70, label %75

70:                                               ; preds = %65
  %71 = load i8, ptr %10, align 1, !tbaa !27
  %72 = load ptr, ptr %5, align 8, !tbaa !4
  %73 = getelementptr inbounds nuw %struct.lxb_encoding_decode_t, ptr %72, i32 0, i32 11
  %74 = getelementptr inbounds nuw %struct.lxb_encoding_ctx_euc_jp_t, ptr %73, i32 0, i32 0
  store i8 %71, ptr %74, align 8, !tbaa !27
  store i32 3145727, ptr %4, align 4
  store i32 1, ptr %11, align 4
  br label %199

75:                                               ; preds = %65
  %76 = load ptr, ptr %6, align 8, !tbaa !8
  %77 = load ptr, ptr %76, align 8, !tbaa !10
  %78 = getelementptr inbounds nuw i8, ptr %77, i32 1
  store ptr %78, ptr %76, align 8, !tbaa !10
  %79 = load i8, ptr %77, align 1, !tbaa !27
  store i8 %79, ptr %9, align 1, !tbaa !27
  br label %80

80:                                               ; preds = %75, %39
  %81 = load i8, ptr %10, align 1, !tbaa !27
  %82 = zext i8 %81 to i32
  %83 = icmp eq i32 %82, 142
  br i1 %83, label %84, label %93

84:                                               ; preds = %80
  %85 = load i8, ptr %9, align 1, !tbaa !27
  %86 = zext i8 %85 to i32
  %87 = sub nsw i32 %86, 161
  %88 = icmp ule i32 %87, 62
  br i1 %88, label %89, label %93

89:                                               ; preds = %84
  %90 = load i8, ptr %9, align 1, !tbaa !27
  %91 = zext i8 %90 to i32
  %92 = add nsw i32 65216, %91
  store i32 %92, ptr %4, align 4
  store i32 1, ptr %11, align 4
  br label %199

93:                                               ; preds = %84, %80
  store i8 0, ptr %8, align 1, !tbaa !33
  %94 = load i8, ptr %10, align 1, !tbaa !27
  %95 = zext i8 %94 to i32
  %96 = icmp eq i32 %95, 143
  br i1 %96, label %97, label %121

97:                                               ; preds = %93
  %98 = load i8, ptr %9, align 1, !tbaa !27
  %99 = zext i8 %98 to i32
  %100 = sub nsw i32 %99, 161
  %101 = icmp ule i32 %100, 93
  br i1 %101, label %102, label %121

102:                                              ; preds = %97
  %103 = load ptr, ptr %6, align 8, !tbaa !8
  %104 = load ptr, ptr %103, align 8, !tbaa !10
  %105 = load ptr, ptr %7, align 8, !tbaa !10
  %106 = icmp uge ptr %104, %105
  br i1 %106, label %107, label %115

107:                                              ; preds = %102
  %108 = load i8, ptr %9, align 1, !tbaa !27
  %109 = load ptr, ptr %5, align 8, !tbaa !4
  %110 = getelementptr inbounds nuw %struct.lxb_encoding_decode_t, ptr %109, i32 0, i32 11
  %111 = getelementptr inbounds nuw %struct.lxb_encoding_ctx_euc_jp_t, ptr %110, i32 0, i32 0
  store i8 %108, ptr %111, align 8, !tbaa !27
  %112 = load ptr, ptr %5, align 8, !tbaa !4
  %113 = getelementptr inbounds nuw %struct.lxb_encoding_decode_t, ptr %112, i32 0, i32 11
  %114 = getelementptr inbounds nuw %struct.lxb_encoding_ctx_euc_jp_t, ptr %113, i32 0, i32 1
  store i8 1, ptr %114, align 1, !tbaa !27
  store i32 3145727, ptr %4, align 4
  store i32 1, ptr %11, align 4
  br label %199

115:                                              ; preds = %102
  %116 = load i8, ptr %9, align 1, !tbaa !27
  store i8 %116, ptr %10, align 1, !tbaa !27
  %117 = load ptr, ptr %6, align 8, !tbaa !8
  %118 = load ptr, ptr %117, align 8, !tbaa !10
  %119 = getelementptr inbounds nuw i8, ptr %118, i32 1
  store ptr %119, ptr %117, align 8, !tbaa !10
  %120 = load i8, ptr %118, align 1, !tbaa !27
  store i8 %120, ptr %9, align 1, !tbaa !27
  store i8 1, ptr %8, align 1, !tbaa !33
  br label %121

121:                                              ; preds = %115, %97, %93
  br label %122

122:                                              ; preds = %121, %35
  %123 = load i8, ptr %10, align 1, !tbaa !27
  %124 = zext i8 %123 to i32
  %125 = sub nsw i32 %124, 161
  %126 = icmp ugt i32 %125, 93
  br i1 %126, label %132, label %127

127:                                              ; preds = %122
  %128 = load i8, ptr %9, align 1, !tbaa !27
  %129 = zext i8 %128 to i32
  %130 = sub nsw i32 %129, 161
  %131 = icmp ugt i32 %130, 93
  br i1 %131, label %132, label %133

132:                                              ; preds = %127, %122
  br label %190

133:                                              ; preds = %127
  %134 = load i8, ptr %10, align 1, !tbaa !27
  %135 = zext i8 %134 to i32
  %136 = sub nsw i32 %135, 161
  %137 = mul nsw i32 %136, 94
  %138 = load i8, ptr %9, align 1, !tbaa !27
  %139 = zext i8 %138 to i32
  %140 = add nsw i32 %137, %139
  %141 = sub nsw i32 %140, 161
  %142 = load ptr, ptr %5, align 8, !tbaa !4
  %143 = getelementptr inbounds nuw %struct.lxb_encoding_decode_t, ptr %142, i32 0, i32 6
  store i32 %141, ptr %143, align 8, !tbaa !29
  %144 = load i8, ptr %8, align 1, !tbaa !33, !range !20, !noundef !21
  %145 = trunc i8 %144 to i1
  br i1 %145, label %146, label %163

146:                                              ; preds = %133
  %147 = load ptr, ptr %5, align 8, !tbaa !4
  %148 = getelementptr inbounds nuw %struct.lxb_encoding_decode_t, ptr %147, i32 0, i32 6
  %149 = load i32, ptr %148, align 8, !tbaa !29
  %150 = zext i32 %149 to i64
  %151 = icmp ule i64 7211, %150
  br i1 %151, label %152, label %153

152:                                              ; preds = %146
  br label %190

153:                                              ; preds = %146
  %154 = load ptr, ptr %5, align 8, !tbaa !4
  %155 = getelementptr inbounds nuw %struct.lxb_encoding_decode_t, ptr %154, i32 0, i32 6
  %156 = load i32, ptr %155, align 8, !tbaa !29
  %157 = zext i32 %156 to i64
  %158 = getelementptr inbounds nuw [7211 x %struct.lxb_encoding_single_index_t], ptr @lxb_encoding_multi_index_jis0212, i64 0, i64 %157
  %159 = getelementptr inbounds nuw %struct.lxb_encoding_single_index_t, ptr %158, i32 0, i32 2
  %160 = load i32, ptr %159, align 4, !tbaa !31
  %161 = load ptr, ptr %5, align 8, !tbaa !4
  %162 = getelementptr inbounds nuw %struct.lxb_encoding_decode_t, ptr %161, i32 0, i32 6
  store i32 %160, ptr %162, align 8, !tbaa !29
  br label %180

163:                                              ; preds = %133
  %164 = load ptr, ptr %5, align 8, !tbaa !4
  %165 = getelementptr inbounds nuw %struct.lxb_encoding_decode_t, ptr %164, i32 0, i32 6
  %166 = load i32, ptr %165, align 8, !tbaa !29
  %167 = zext i32 %166 to i64
  %168 = icmp ule i64 11104, %167
  br i1 %168, label %169, label %170

169:                                              ; preds = %163
  br label %190

170:                                              ; preds = %163
  %171 = load ptr, ptr %5, align 8, !tbaa !4
  %172 = getelementptr inbounds nuw %struct.lxb_encoding_decode_t, ptr %171, i32 0, i32 6
  %173 = load i32, ptr %172, align 8, !tbaa !29
  %174 = zext i32 %173 to i64
  %175 = getelementptr inbounds nuw [11104 x %struct.lxb_encoding_single_index_t], ptr @lxb_encoding_multi_index_jis0208, i64 0, i64 %174
  %176 = getelementptr inbounds nuw %struct.lxb_encoding_single_index_t, ptr %175, i32 0, i32 2
  %177 = load i32, ptr %176, align 4, !tbaa !31
  %178 = load ptr, ptr %5, align 8, !tbaa !4
  %179 = getelementptr inbounds nuw %struct.lxb_encoding_decode_t, ptr %178, i32 0, i32 6
  store i32 %177, ptr %179, align 8, !tbaa !29
  br label %180

180:                                              ; preds = %170, %153
  %181 = load ptr, ptr %5, align 8, !tbaa !4
  %182 = getelementptr inbounds nuw %struct.lxb_encoding_decode_t, ptr %181, i32 0, i32 6
  %183 = load i32, ptr %182, align 8, !tbaa !29
  %184 = icmp eq i32 %183, 2097151
  br i1 %184, label %185, label %186

185:                                              ; preds = %180
  br label %190

186:                                              ; preds = %180
  %187 = load ptr, ptr %5, align 8, !tbaa !4
  %188 = getelementptr inbounds nuw %struct.lxb_encoding_decode_t, ptr %187, i32 0, i32 6
  %189 = load i32, ptr %188, align 8, !tbaa !29
  store i32 %189, ptr %4, align 4
  store i32 1, ptr %11, align 4
  br label %199

190:                                              ; preds = %185, %169, %152, %132
  %191 = load i8, ptr %9, align 1, !tbaa !27
  %192 = zext i8 %191 to i32
  %193 = icmp slt i32 %192, 128
  br i1 %193, label %194, label %198

194:                                              ; preds = %190
  %195 = load ptr, ptr %6, align 8, !tbaa !8
  %196 = load ptr, ptr %195, align 8, !tbaa !10
  %197 = getelementptr inbounds i8, ptr %196, i32 -1
  store ptr %197, ptr %195, align 8, !tbaa !10
  br label %198

198:                                              ; preds = %194, %190
  store i32 2097151, ptr %4, align 4
  store i32 1, ptr %11, align 4
  br label %199

199:                                              ; preds = %198, %186, %107, %89, %70, %64, %48
  call void @llvm.lifetime.end.p0(i64 1, ptr %10) #5
  call void @llvm.lifetime.end.p0(i64 1, ptr %9) #5
  call void @llvm.lifetime.end.p0(i64 1, ptr %8) #5
  %200 = load i32, ptr %4, align 4
  ret i32 %200
}