; Function Attrs: mustprogress nofree norecurse nosync nounwind willreturn memory(read, argmem: readwrite, inaccessiblemem: none) uwtable
define hidden i32 @lxb_encoding_decode_euc_jp_single(ptr noundef captures(none) %0, ptr noundef captures(none) %1, ptr noundef readnone captures(address) %2) local_unnamed_addr #7 {
  %4 = getelementptr inbounds nuw i8, ptr %0, i64 64
  %5 = load i8, ptr %4, align 8, !tbaa !24
  %.not = icmp eq i8 %5, 0
  %6 = load ptr, ptr %1, align 8, !tbaa !4
  %7 = getelementptr inbounds nuw i8, ptr %6, i64 1
  store ptr %7, ptr %1, align 8, !tbaa !4
  %8 = load i8, ptr %6, align 1, !tbaa !24
  br i1 %.not, label %14, label %9

9:                                                ; preds = %3
  store i8 0, ptr %4, align 8, !tbaa !24
  %10 = getelementptr inbounds nuw i8, ptr %0, i64 65
  %11 = load i8, ptr %10, align 1, !tbaa !24, !range !17, !noundef !18
  %12 = trunc nuw i8 %11 to i1
  br i1 %12, label %13, label %27

13:                                               ; preds = %9
  store i8 0, ptr %10, align 1, !tbaa !24
  br label %44

14:                                               ; preds = %3
  %15 = zext i8 %8 to i32
  %16 = icmp sgt i8 %8, -1
  br i1 %16, label %72, label %17

17:                                               ; preds = %14
  %18 = add nsw i32 %15, -255
  %19 = icmp ult i32 %18, -94
  %20 = add nsw i8 %8, 112
  %21 = icmp ult i8 %20, -2
  %or.cond5 = and i1 %21, %19
  br i1 %or.cond5, label %72, label %22

22:                                               ; preds = %17
  %.not62 = icmp ult ptr %7, %2
  br i1 %.not62, label %24, label %23

23:                                               ; preds = %22
  store i8 %8, ptr %4, align 8, !tbaa !24
  br label %72

24:                                               ; preds = %22
  %25 = getelementptr inbounds nuw i8, ptr %6, i64 2
  store ptr %25, ptr %1, align 8, !tbaa !4
  %26 = load i8, ptr %7, align 1, !tbaa !24
  br label %27

27:                                               ; preds = %9, %24
  %.151 = phi i8 [ %8, %9 ], [ %26, %24 ]
  %.1 = phi i8 [ %5, %9 ], [ %8, %24 ]
  %28 = icmp eq i8 %.1, -114
  %29 = add i8 %.151, 95
  %30 = icmp ult i8 %29, 63
  %or.cond = select i1 %28, i1 %30, i1 false
  br i1 %or.cond, label %31, label %34

31:                                               ; preds = %27
  %32 = zext i8 %.151 to i32
  %33 = add nuw nsw i32 %32, 65216
  br label %72

34:                                               ; preds = %27
  %35 = icmp eq i8 %.1, -113
  %36 = icmp ult i8 %29, 94
  %or.cond66 = select i1 %35, i1 %36, i1 false
  br i1 %or.cond66, label %37, label %44

37:                                               ; preds = %34
  %38 = load ptr, ptr %1, align 8, !tbaa !4
  %.not63 = icmp ult ptr %38, %2
  br i1 %.not63, label %41, label %39

39:                                               ; preds = %37
  store i8 %.151, ptr %4, align 8, !tbaa !24
  %40 = getelementptr inbounds nuw i8, ptr %0, i64 65
  store i8 1, ptr %40, align 1, !tbaa !24
  br label %72

41:                                               ; preds = %37
  %42 = getelementptr inbounds nuw i8, ptr %38, i64 1
  store ptr %42, ptr %1, align 8, !tbaa !4
  %43 = load i8, ptr %38, align 1, !tbaa !24
  br label %44

44:                                               ; preds = %34, %41, %13
  %.052 = phi i1 [ true, %13 ], [ true, %41 ], [ false, %34 ]
  %.050 = phi i8 [ %8, %13 ], [ %43, %41 ], [ %.151, %34 ]
  %.0 = phi i8 [ %5, %13 ], [ %.151, %41 ], [ %.1, %34 ]
  %45 = zext i8 %.0 to i32
  %46 = add nsw i32 %45, -161
  %47 = icmp ugt i32 %46, 93
  br i1 %47, label %67, label %48

48:                                               ; preds = %44
  %49 = zext i8 %.050 to i32
  %50 = add nsw i32 %49, -255
  %51 = icmp ult i32 %50, -94
  br i1 %51, label %67, label %52

52:                                               ; preds = %48
  %53 = mul nuw nsw i32 %46, 94
  %54 = add nsw i32 %49, -161
  %55 = add nuw nsw i32 %54, %53
  %56 = getelementptr inbounds nuw i8, ptr %0, i64 48
  store i32 %55, ptr %56, align 8, !tbaa !25
  br i1 %.052, label %57, label %62

57:                                               ; preds = %52
  %58 = icmp samesign ugt i32 %55, 7210
  br i1 %58, label %67, label %59

59:                                               ; preds = %57
  %60 = zext nneg i32 %55 to i64
  %61 = getelementptr inbounds nuw [7211 x %struct.lxb_encoding_single_index_t], ptr @lxb_encoding_multi_index_jis0212, i64 0, i64 %60, i32 2
  br label %65

62:                                               ; preds = %52
  %63 = zext nneg i32 %55 to i64
  %64 = getelementptr inbounds nuw [11104 x %struct.lxb_encoding_single_index_t], ptr @lxb_encoding_multi_index_jis0208, i64 0, i64 %63, i32 2
  br label %65

65:                                               ; preds = %62, %59
  %storemerge.in = phi ptr [ %64, %62 ], [ %61, %59 ]
  %storemerge = load i32, ptr %storemerge.in, align 4, !tbaa !28
  store i32 %storemerge, ptr %56, align 8, !tbaa !25
  %66 = icmp eq i32 %storemerge, 2097151
  br i1 %66, label %67, label %72

67:                                               ; preds = %65, %57, %44, %48
  %68 = icmp sgt i8 %.050, -1
  br i1 %68, label %69, label %72

69:                                               ; preds = %67
  %70 = load ptr, ptr %1, align 8, !tbaa !4
  %71 = getelementptr inbounds i8, ptr %70, i64 -1
  store ptr %71, ptr %1, align 8, !tbaa !4
  br label %72

72:                                               ; preds = %67, %69, %65, %17, %14, %39, %31, %23
  %.053 = phi i32 [ %33, %31 ], [ 3145727, %39 ], [ 3145727, %23 ], [ %15, %14 ], [ 2097151, %17 ], [ %storemerge, %65 ], [ 2097151, %69 ], [ 2097151, %67 ]
  ret i32 %.053
}